target datalayout = "e-m:e-p270:32:32-p271:32:32-p272:64:64-i64:64-i128:128-f80:128-n8:16:32:64-S128"
target triple = "x86_64-pc-linux-gnu"

%struct.TupleTableSlotOps = type { i64, ptr, ptr, ptr, ptr, ptr, ptr, ptr, ptr, ptr, ptr, ptr, ptr }
%struct.MemoizeState = type { %struct.ScanState, i32, i32, ptr, ptr, ptr, ptr, ptr, ptr, ptr, ptr, i64, i64, ptr, %struct.dlist_head, ptr, ptr, i8, i8, %struct.MemoizeInstrumentation, ptr, ptr }
%struct.ScanState = type { %struct.PlanState, ptr, ptr, ptr }
%struct.PlanState = type { i32, ptr, ptr, ptr, ptr, ptr, ptr, ptr, ptr, ptr, ptr, ptr, ptr, ptr, ptr, ptr, ptr, ptr, i8, ptr, ptr, ptr, ptr, ptr, i8, i8, i8, i8, i8, i8, i8, i8 }
%struct.dlist_head = type { %struct.dlist_node }
%struct.dlist_node = type { ptr, ptr }
%struct.MemoizeInstrumentation = type { i64, i64, i64, i64, i64 }
%struct.Plan = type { i32, i32, double, double, double, i32, i8, i8, i8, i32, ptr, ptr, ptr, ptr, ptr, ptr, ptr }
%struct.Memoize = type { %struct.Plan, i32, ptr, ptr, ptr, i8, i8, i32, ptr }
%struct.FmgrInfo = type { ptr, i32, i16, i8, i8, i8, ptr, ptr, ptr }
%struct.Node = type { i32 }
%struct.List = type { i32, i32, i32, ptr, [0 x %union.ListCell] }
%union.ListCell = type { ptr }

@TTSOpsMinimalTuple = external constant %struct.TupleTableSlotOps, align 8
@TTSOpsVirtual = external constant %struct.TupleTableSlotOps, align 8
@.str = private unnamed_addr constant [50 x i8] c"could not find hash function for hash operator %u\00", align 1
@.str.1 = private unnamed_addr constant [14 x i8] c"nodeMemoize.c\00", align 1
@__func__.ExecInitMemoize = private unnamed_addr constant [16 x i8] c"ExecInitMemoize\00", align 1
@CurrentMemoryContext = external global ptr, align 8
@.str.2 = private unnamed_addr constant [17 x i8] c"MemoizeHashTable\00", align 1

; Function Attrs: inlinehint nounwind uwtable
define internal ptr @list_nth_cell(ptr noundef %0, i32 noundef %1) #2 {
  %3 = alloca ptr, align 8
  %4 = alloca i32, align 4
  store ptr %0, ptr %3, align 8
  store i32 %1, ptr %4, align 4
  %5 = load ptr, ptr %3, align 8
  %6 = getelementptr inbounds nuw %struct.List, ptr %5, i32 0, i32 3
  %7 = load ptr, ptr %6, align 8
  %8 = load i32, ptr %4, align 4
  %9 = sext i32 %8 to i64
  %10 = getelementptr inbounds %union.ListCell, ptr %7, i64 %9
  ret ptr %10
}

; Function Attrs: inlinehint nounwind uwtable
define internal void @dlist_init(ptr noundef %0) #2 {
  %2 = alloca ptr, align 8
  store ptr %0, ptr %2, align 8
  %3 = load ptr, ptr %2, align 8
  %4 = getelementptr inbounds nuw %struct.dlist_head, ptr %3, i32 0, i32 0
  %5 = load ptr, ptr %2, align 8
  %6 = getelementptr inbounds nuw %struct.dlist_head, ptr %5, i32 0, i32 0
  %7 = getelementptr inbounds nuw %struct.dlist_node, ptr %6, i32 0, i32 0
  store ptr %4, ptr %7, align 8
  %8 = load ptr, ptr %2, align 8
  %9 = getelementptr inbounds nuw %struct.dlist_head, ptr %8, i32 0, i32 0
  %10 = getelementptr inbounds nuw %struct.dlist_node, ptr %9, i32 0, i32 1
  store ptr %4, ptr %10, align 8
  ret void
}

; Function Attrs: inlinehint nounwind uwtable
define internal ptr @list_nth(ptr noundef %0, i32 noundef %1) #2 {
  %3 = alloca ptr, align 8
  %4 = alloca i32, align 4
  store ptr %0, ptr %3, align 8
  store i32 %1, ptr %4, align 4
  %5 = load ptr, ptr %3, align 8
  %6 = load i32, ptr %4, align 4
  %7 = call ptr @list_nth_cell(ptr noundef %5, i32 noundef %6)
  %8 = load ptr, ptr %7, align 8
  ret ptr %8
}

; Function Attrs: inlinehint nounwind uwtable
define internal ptr @newNode(i64 noundef %0, i32 noundef %1) #2 {
  %3 = alloca i64, align 8
  %4 = alloca i32, align 4
  %5 = alloca ptr, align 8
  store i64 %0, ptr %3, align 8
  store i32 %1, ptr %4, align 4
  call void @llvm.lifetime.start.p0(i64 8, ptr %5) #9
  %6 = load i64, ptr %3, align 8
  %7 = call ptr @palloc0(i64 noundef %6)
  store ptr %7, ptr %5, align 8
  %8 = load i32, ptr %4, align 4
  %9 = load ptr, ptr %5, align 8
  %10 = getelementptr inbounds nuw %struct.Node, ptr %9, i32 0, i32 0
  store i32 %8, ptr %10, align 4
  %11 = load ptr, ptr %5, align 8
  call void @llvm.lifetime.end.p0(i64 8, ptr %5) #9
  ret ptr %11
}

; Function Attrs: nounwind uwtable
define dso_local ptr @ExecInitMemoize(ptr noundef %0, ptr noundef %1, i32 noundef %2) #0 {
  %4 = alloca ptr, align 8
  %5 = alloca ptr, align 8
  %6 = alloca i32, align 4
  %7 = alloca ptr, align 8
  %8 = alloca ptr, align 8
  %9 = alloca i32, align 4
  %10 = alloca i32, align 4
  %11 = alloca ptr, align 8
  %12 = alloca i32, align 4
  %13 = alloca i32, align 4
  %14 = alloca i32, align 4
  %15 = alloca ptr, align 8
  %16 = alloca i32, align 4
  store ptr %0, ptr %4, align 8
  store ptr %1, ptr %5, align 8
  store i32 %2, ptr %6, align 4
  call void @llvm.lifetime.start.p0(i64 8, ptr %7) #9
  %17 = call ptr @newNode(i64 noundef 416, i32 noundef 424)
  store ptr %17, ptr %7, align 8
  call void @llvm.lifetime.start.p0(i64 8, ptr %8) #9
  call void @llvm.lifetime.start.p0(i64 4, ptr %9) #9
  call void @llvm.lifetime.start.p0(i64 4, ptr %10) #9
  call void @llvm.lifetime.start.p0(i64 8, ptr %11) #9
  %18 = load ptr, ptr %4, align 8
  %19 = load ptr, ptr %7, align 8
  %20 = getelementptr inbounds nuw %struct.MemoizeState, ptr %19, i32 0, i32 0
  %21 = getelementptr inbounds nuw %struct.ScanState, ptr %20, i32 0, i32 0
  %22 = getelementptr inbounds nuw %struct.PlanState, ptr %21, i32 0, i32 1
  store ptr %18, ptr %22, align 8
  %23 = load ptr, ptr %5, align 8
  %24 = load ptr, ptr %7, align 8
  %25 = getelementptr inbounds nuw %struct.MemoizeState, ptr %24, i32 0, i32 0
  %26 = getelementptr inbounds nuw %struct.ScanState, ptr %25, i32 0, i32 0
  %27 = getelementptr inbounds nuw %struct.PlanState, ptr %26, i32 0, i32 2
  store ptr %23, ptr %27, align 8
  %28 = load ptr, ptr %7, align 8
  %29 = getelementptr inbounds nuw %struct.MemoizeState, ptr %28, i32 0, i32 0
  %30 = getelementptr inbounds nuw %struct.ScanState, ptr %29, i32 0, i32 0
  %31 = getelementptr inbounds nuw %struct.PlanState, ptr %30, i32 0, i32 3
  store ptr @ExecMemoize, ptr %31, align 8
  %32 = load ptr, ptr %5, align 8
  %33 = load ptr, ptr %7, align 8
  %34 = getelementptr inbounds nuw %struct.MemoizeState, ptr %33, i32 0, i32 0
  %35 = getelementptr inbounds nuw %struct.ScanState, ptr %34, i32 0, i32 0
  call void @ExecAssignExprContext(ptr noundef %32, ptr noundef %35)
  %36 = load ptr, ptr %4, align 8
  %37 = getelementptr inbounds nuw %struct.Plan, ptr %36, i32 0, i32 12
  %38 = load ptr, ptr %37, align 8
  store ptr %38, ptr %8, align 8
  %39 = load ptr, ptr %8, align 8
  %40 = load ptr, ptr %5, align 8
  %41 = load i32, ptr %6, align 4
  %42 = call ptr @ExecInitNode(ptr noundef %39, ptr noundef %40, i32 noundef %41)
  %43 = load ptr, ptr %7, align 8
  %44 = getelementptr inbounds nuw %struct.PlanState, ptr %43, i32 0, i32 9
  store ptr %42, ptr %44, align 8
  %45 = load ptr, ptr %7, align 8
  %46 = getelementptr inbounds nuw %struct.MemoizeState, ptr %45, i32 0, i32 0
  %47 = getelementptr inbounds nuw %struct.ScanState, ptr %46, i32 0, i32 0
  call void @ExecInitResultTupleSlotTL(ptr noundef %47, ptr noundef @TTSOpsMinimalTuple)
  %48 = load ptr, ptr %7, align 8
  %49 = getelementptr inbounds nuw %struct.MemoizeState, ptr %48, i32 0, i32 0
  %50 = getelementptr inbounds nuw %struct.ScanState, ptr %49, i32 0, i32 0
  %51 = getelementptr inbounds nuw %struct.PlanState, ptr %50, i32 0, i32 17
  store ptr null, ptr %51, align 8
  %52 = load ptr, ptr %5, align 8
  %53 = load ptr, ptr %7, align 8
  %54 = getelementptr inbounds nuw %struct.MemoizeState, ptr %53, i32 0, i32 0
  call void @ExecCreateScanSlotFromOuterPlan(ptr noundef %52, ptr noundef %54, ptr noundef @TTSOpsMinimalTuple)
  %55 = load ptr, ptr %7, align 8
  %56 = getelementptr inbounds nuw %struct.MemoizeState, ptr %55, i32 0, i32 1
  store i32 1, ptr %56, align 8
  %57 = load ptr, ptr %4, align 8
  %58 = getelementptr inbounds nuw %struct.Memoize, ptr %57, i32 0, i32 1
  %59 = load i32, ptr %58, align 8
  store i32 %59, ptr %10, align 4
  %60 = load ptr, ptr %7, align 8
  %61 = getelementptr inbounds nuw %struct.MemoizeState, ptr %60, i32 0, i32 2
  store i32 %59, ptr %61, align 4
  %62 = load ptr, ptr %4, align 8
  %63 = getelementptr inbounds nuw %struct.Memoize, ptr %62, i32 0, i32 4
  %64 = load ptr, ptr %63, align 8
  %65 = call ptr @ExecTypeFromExprList(ptr noundef %64)
  %66 = load ptr, ptr %7, align 8
  %67 = getelementptr inbounds nuw %struct.MemoizeState, ptr %66, i32 0, i32 4
  store ptr %65, ptr %67, align 8
  %68 = load ptr, ptr %7, align 8
  %69 = getelementptr inbounds nuw %struct.MemoizeState, ptr %68, i32 0, i32 4
  %70 = load ptr, ptr %69, align 8
  %71 = call ptr @MakeSingleTupleTableSlot(ptr noundef %70, ptr noundef @TTSOpsMinimalTuple)
  %72 = load ptr, ptr %7, align 8
  %73 = getelementptr inbounds nuw %struct.MemoizeState, ptr %72, i32 0, i32 5
  store ptr %71, ptr %73, align 8
  %74 = load ptr, ptr %7, align 8
  %75 = getelementptr inbounds nuw %struct.MemoizeState, ptr %74, i32 0, i32 4
  %76 = load ptr, ptr %75, align 8
  %77 = call ptr @MakeSingleTupleTableSlot(ptr noundef %76, ptr noundef @TTSOpsVirtual)
  %78 = load ptr, ptr %7, align 8
  %79 = getelementptr inbounds nuw %struct.MemoizeState, ptr %78, i32 0, i32 6
  store ptr %77, ptr %79, align 8
  %80 = load i32, ptr %10, align 4
  %81 = sext i32 %80 to i64
  %82 = mul i64 %81, 8
  %83 = call ptr @palloc(i64 noundef %82)
  %84 = load ptr, ptr %7, align 8
  %85 = getelementptr inbounds nuw %struct.MemoizeState, ptr %84, i32 0, i32 8
  store ptr %83, ptr %85, align 8
  %86 = load ptr, ptr %4, align 8
  %87 = getelementptr inbounds nuw %struct.Memoize, ptr %86, i32 0, i32 3
  %88 = load ptr, ptr %87, align 8
  %89 = load ptr, ptr %7, align 8
  %90 = getelementptr inbounds nuw %struct.MemoizeState, ptr %89, i32 0, i32 10
  store ptr %88, ptr %90, align 8
  %91 = load i32, ptr %10, align 4
  %92 = sext i32 %91 to i64
  %93 = mul i64 %92, 48
  %94 = call ptr @palloc(i64 noundef %93)
  %95 = load ptr, ptr %7, align 8
  %96 = getelementptr inbounds nuw %struct.MemoizeState, ptr %95, i32 0, i32 9
  store ptr %94, ptr %96, align 8
  %97 = load i32, ptr %10, align 4
  %98 = sext i32 %97 to i64
  %99 = mul i64 %98, 4
  %100 = call ptr @palloc(i64 noundef %99)
  store ptr %100, ptr %11, align 8
  store i32 0, ptr %9, align 4
  br label %101

101:                                              ; preds = %155, %3
  %102 = load i32, ptr %9, align 4
  %103 = load i32, ptr %10, align 4
  %104 = icmp slt i32 %102, %103
  br i1 %104, label %105, label %158

105:                                              ; preds = %101
  call void @llvm.lifetime.start.p0(i64 4, ptr %12) #9
  %106 = load ptr, ptr %4, align 8
  %107 = getelementptr inbounds nuw %struct.Memoize, ptr %106, i32 0, i32 2
  %108 = load ptr, ptr %107, align 8
  %109 = load i32, ptr %9, align 4
  %110 = sext i32 %109 to i64
  %111 = getelementptr inbounds i32, ptr %108, i64 %110
  %112 = load i32, ptr %111, align 4
  store i32 %112, ptr %12, align 4
  call void @llvm.lifetime.start.p0(i64 4, ptr %13) #9
  call void @llvm.lifetime.start.p0(i64 4, ptr %14) #9
  call void @llvm.lifetime.start.p0(i64 8, ptr %15) #9
  %113 = load ptr, ptr %4, align 8
  %114 = getelementptr inbounds nuw %struct.Memoize, ptr %113, i32 0, i32 4
  %115 = load ptr, ptr %114, align 8
  %116 = load i32, ptr %9, align 4
  %117 = call ptr @list_nth(ptr noundef %115, i32 noundef %116)
  store ptr %117, ptr %15, align 8
  %118 = load i32, ptr %12, align 4
  %119 = call zeroext i1 @get_op_hash_functions(i32 noundef %118, ptr noundef %13, ptr noundef %14)
  br i1 %119, label %132, label %120

120:                                              ; preds = %105
  br label %121

121:                                              ; preds = %120
  br i1 true, label %122, label %124

122:                                              ; preds = %121
  %123 = call zeroext i1 @errstart_cold(i32 noundef 21, ptr noundef null) #10
  br i1 %123, label %126, label %129

124:                                              ; preds = %121
  %125 = call zeroext i1 @errstart(i32 noundef 21, ptr noundef null)
  br i1 %125, label %126, label %129

126:                                              ; preds = %124, %122
  %127 = load i32, ptr %12, align 4
  %128 = call i32 (ptr, ...) @errmsg_internal(ptr noundef @.str, i32 noundef %127)
  call void @errfinish(ptr noundef @.str.1, i32 noundef 1019, ptr noundef @__func__.ExecInitMemoize)
  br label %129

129:                                              ; preds = %126, %124, %122
  unreachable

130:                                              ; No predecessors!
  br label %131

131:                                              ; preds = %130
  br label %132

132:                                              ; preds = %131, %105
  %133 = load i32, ptr %13, align 4
  %134 = load ptr, ptr %7, align 8
  %135 = getelementptr inbounds nuw %struct.MemoizeState, ptr %134, i32 0, i32 9
  %136 = load ptr, ptr %135, align 8
  %137 = load i32, ptr %9, align 4
  %138 = sext i32 %137 to i64
  %139 = getelementptr inbounds %struct.FmgrInfo, ptr %136, i64 %138
  call void @fmgr_info(i32 noundef %133, ptr noundef %139)
  %140 = load ptr, ptr %15, align 8
  %141 = load ptr, ptr %7, align 8
  %142 = call ptr @ExecInitExpr(ptr noundef %140, ptr noundef %141)
  %143 = load ptr, ptr %7, align 8
  %144 = getelementptr inbounds nuw %struct.MemoizeState, ptr %143, i32 0, i32 8
  %145 = load ptr, ptr %144, align 8
  %146 = load i32, ptr %9, align 4
  %147 = sext i32 %146 to i64
  %148 = getelementptr inbounds ptr, ptr %145, i64 %147
  store ptr %142, ptr %148, align 8
  %149 = load i32, ptr %12, align 4
  %150 = call i32 @get_opcode(i32 noundef %149)
  %151 = load ptr, ptr %11, align 8
  %152 = load i32, ptr %9, align 4
  %153 = sext i32 %152 to i64
  %154 = getelementptr inbounds i32, ptr %151, i64 %153
  store i32 %150, ptr %154, align 4
  call void @llvm.lifetime.end.p0(i64 8, ptr %15) #9
  call void @llvm.lifetime.end.p0(i64 4, ptr %14) #9
  call void @llvm.lifetime.end.p0(i64 4, ptr %13) #9
  call void @llvm.lifetime.end.p0(i64 4, ptr %12) #9
  br label %155

155:                                              ; preds = %132
  %156 = load i32, ptr %9, align 4
  %157 = add i32 %156, 1
  store i32 %157, ptr %9, align 4
  br label %101, !llvm.loop !4

158:                                              ; preds = %101
  %159 = load ptr, ptr %7, align 8
  %160 = getelementptr inbounds nuw %struct.MemoizeState, ptr %159, i32 0, i32 4
  %161 = load ptr, ptr %160, align 8
  %162 = load ptr, ptr %11, align 8
  %163 = load ptr, ptr %4, align 8
  %164 = getelementptr inbounds nuw %struct.Memoize, ptr %163, i32 0, i32 3
  %165 = load ptr, ptr %164, align 8
  %166 = load ptr, ptr %4, align 8
  %167 = getelementptr inbounds nuw %struct.Memoize, ptr %166, i32 0, i32 4
  %168 = load ptr, ptr %167, align 8
  %169 = load ptr, ptr %7, align 8
  %170 = call ptr @ExecBuildParamSetEqual(ptr noundef %161, ptr noundef @TTSOpsMinimalTuple, ptr noundef @TTSOpsVirtual, ptr noundef %162, ptr noundef %165, ptr noundef %168, ptr noundef %169)
  %171 = load ptr, ptr %7, align 8
  %172 = getelementptr inbounds nuw %struct.MemoizeState, ptr %171, i32 0, i32 7
  store ptr %170, ptr %172, align 8
  %173 = load ptr, ptr %11, align 8
  call void @pfree(ptr noundef %173)
  %174 = load ptr, ptr %7, align 8
  %175 = getelementptr inbounds nuw %struct.MemoizeState, ptr %174, i32 0, i32 11
  store i64 0, ptr %175, align 8
  %176 = call i64 @get_hash_memory_limit()
  %177 = load ptr, ptr %7, align 8
  %178 = getelementptr inbounds nuw %struct.MemoizeState, ptr %177, i32 0, i32 12
  store i64 %176, ptr %178, align 8
  br label %179

179:                                              ; preds = %158
  br label %180

180:                                              ; preds = %179
  br label %181

181:                                              ; preds = %180
  store i32 1, ptr %16, align 4
  %182 = load ptr, ptr @CurrentMemoryContext, align 8
  %183 = call ptr @AllocSetContextCreateInternal(ptr noundef %182, ptr noundef @.str.2, i64 noundef 0, i64 noundef 8192, i64 noundef 8388608)
  %184 = load ptr, ptr %7, align 8
  %185 = getelementptr inbounds nuw %struct.MemoizeState, ptr %184, i32 0, i32 13
  store ptr %183, ptr %185, align 8
  %186 = load ptr, ptr %7, align 8
  %187 = getelementptr inbounds nuw %struct.MemoizeState, ptr %186, i32 0, i32 14
  call void @dlist_init(ptr noundef %187)
  %188 = load ptr, ptr %7, align 8
  %189 = getelementptr inbounds nuw %struct.MemoizeState, ptr %188, i32 0, i32 15
  store ptr null, ptr %189, align 8
  %190 = load ptr, ptr %7, align 8
  %191 = getelementptr inbounds nuw %struct.MemoizeState, ptr %190, i32 0, i32 16
  store ptr null, ptr %191, align 8
  %192 = load ptr, ptr %4, align 8
  %193 = getelementptr inbounds nuw %struct.Memoize, ptr %192, i32 0, i32 5
  %194 = load i8, ptr %193, align 8, !range !6, !noundef !7
  %195 = trunc i8 %194 to i1
  %196 = load ptr, ptr %7, align 8
  %197 = getelementptr inbounds nuw %struct.MemoizeState, ptr %196, i32 0, i32 17
  %198 = zext i1 %195 to i8
  store i8 %198, ptr %197, align 8
  %199 = load ptr, ptr %4, align 8
  %200 = getelementptr inbounds nuw %struct.Memoize, ptr %199, i32 0, i32 8
  %201 = load ptr, ptr %200, align 8
  %202 = load ptr, ptr %7, align 8
  %203 = getelementptr inbounds nuw %struct.MemoizeState, ptr %202, i32 0, i32 21
  store ptr %201, ptr %203, align 8
  %204 = load ptr, ptr %4, align 8
  %205 = getelementptr inbounds nuw %struct.Memoize, ptr %204, i32 0, i32 6
  %206 = load i8, ptr %205, align 1, !range !6, !noundef !7
  %207 = trunc i8 %206 to i1
  %208 = load ptr, ptr %7, align 8
  %209 = getelementptr inbounds nuw %struct.MemoizeState, ptr %208, i32 0, i32 18
  %210 = zext i1 %207 to i8
  store i8 %210, ptr %209, align 1
  %211 = load ptr, ptr %7, align 8
  %212 = getelementptr inbounds nuw %struct.MemoizeState, ptr %211, i32 0, i32 19
  call void @llvm.memset.p0.i64(ptr align 8 %212, i8 0, i64 40, i1 false)
  %213 = load ptr, ptr %7, align 8
  %214 = getelementptr inbounds nuw %struct.MemoizeState, ptr %213, i32 0, i32 3
  store ptr null, ptr %214, align 8
  %215 = load ptr, ptr %7, align 8
  call void @llvm.lifetime.end.p0(i64 8, ptr %11) #9
  call void @llvm.lifetime.end.p0(i64 4, ptr %10) #9
  call void @llvm.lifetime.end.p0(i64 4, ptr %9) #9
  call void @llvm.lifetime.end.p0(i64 8, ptr %8) #9
  call void @llvm.lifetime.end.p0(i64 8, ptr %7) #9
  ret ptr %215
}