; Function Attrs: nounwind uwtable
define dso_local noundef ptr @ExecInitMemoize(ptr noundef %0, ptr noundef %1, i32 noundef %2) local_unnamed_addr #0 {
  %4 = alloca i32, align 4
  %5 = alloca i32, align 4
  %6 = tail call noundef ptr @palloc0(i64 noundef 416) #11
  store i32 424, ptr %6, align 4
  %7 = getelementptr inbounds nuw i8, ptr %6, i64 8
  store ptr %0, ptr %7, align 8
  %8 = getelementptr inbounds nuw i8, ptr %6, i64 16
  store ptr %1, ptr %8, align 8
  %9 = getelementptr inbounds nuw i8, ptr %6, i64 24
  store ptr @ExecMemoize, ptr %9, align 8
  tail call void @ExecAssignExprContext(ptr noundef %1, ptr noundef %6) #11
  %10 = getelementptr inbounds nuw i8, ptr %0, i64 64
  %11 = load ptr, ptr %10, align 8
  %12 = tail call ptr @ExecInitNode(ptr noundef %11, ptr noundef %1, i32 noundef %2) #11
  %13 = getelementptr inbounds nuw i8, ptr %6, i64 72
  store ptr %12, ptr %13, align 8
  tail call void @ExecInitResultTupleSlotTL(ptr noundef %6, ptr noundef nonnull @TTSOpsMinimalTuple) #11
  %14 = getelementptr inbounds nuw i8, ptr %6, i64 136
  store ptr null, ptr %14, align 8
  tail call void @ExecCreateScanSlotFromOuterPlan(ptr noundef %1, ptr noundef %6, ptr noundef nonnull @TTSOpsMinimalTuple) #11
  %15 = getelementptr inbounds nuw i8, ptr %6, i64 224
  store i32 1, ptr %15, align 8
  %16 = getelementptr inbounds nuw i8, ptr %0, i64 104
  %17 = load i32, ptr %16, align 8
  %18 = getelementptr inbounds nuw i8, ptr %6, i64 228
  store i32 %17, ptr %18, align 4
  %19 = getelementptr inbounds nuw i8, ptr %0, i64 128
  %20 = load ptr, ptr %19, align 8
  %21 = tail call ptr @ExecTypeFromExprList(ptr noundef %20) #11
  %22 = getelementptr inbounds nuw i8, ptr %6, i64 240
  store ptr %21, ptr %22, align 8
  %23 = tail call ptr @MakeSingleTupleTableSlot(ptr noundef %21, ptr noundef nonnull @TTSOpsMinimalTuple) #11
  %24 = getelementptr inbounds nuw i8, ptr %6, i64 248
  store ptr %23, ptr %24, align 8
  %25 = load ptr, ptr %22, align 8
  %26 = tail call ptr @MakeSingleTupleTableSlot(ptr noundef %25, ptr noundef nonnull @TTSOpsVirtual) #11
  %27 = getelementptr inbounds nuw i8, ptr %6, i64 256
  store ptr %26, ptr %27, align 8
  %28 = sext i32 %17 to i64
  %29 = shl nsw i64 %28, 3
  %30 = tail call ptr @palloc(i64 noundef %29) #11
  %31 = getelementptr inbounds nuw i8, ptr %6, i64 272
  store ptr %30, ptr %31, align 8
  %32 = getelementptr inbounds nuw i8, ptr %0, i64 120
  %33 = load ptr, ptr %32, align 8
  %34 = getelementptr inbounds nuw i8, ptr %6, i64 288
  store ptr %33, ptr %34, align 8
  %35 = mul nsw i64 %28, 48
  %36 = tail call ptr @palloc(i64 noundef %35) #11
  %37 = getelementptr inbounds nuw i8, ptr %6, i64 280
  store ptr %36, ptr %37, align 8
  %38 = shl nsw i64 %28, 2
  %39 = tail call ptr @palloc(i64 noundef %38) #11
  %40 = icmp sgt i32 %17, 0
  br i1 %40, label %.lr.ph, label %._crit_edge

.lr.ph:                                           ; preds = %3
  %41 = getelementptr inbounds nuw i8, ptr %0, i64 112
  %wide.trip.count = zext nneg i32 %17 to i64
  br label %42

42:                                               ; preds = %.lr.ph, %54
  %indvars.iv = phi i64 [ 0, %.lr.ph ], [ %indvars.iv.next, %54 ]
  %43 = load ptr, ptr %41, align 8
  %44 = getelementptr inbounds nuw i32, ptr %43, i64 %indvars.iv
  %45 = load i32, ptr %44, align 4
  call void @llvm.lifetime.start.p0(i64 4, ptr nonnull %4) #11
  call void @llvm.lifetime.start.p0(i64 4, ptr nonnull %5) #11
  %46 = load ptr, ptr %19, align 8
  %47 = getelementptr i8, ptr %46, i64 16
  %.val = load ptr, ptr %47, align 8
  %48 = getelementptr inbounds nuw %union.ListCell, ptr %.val, i64 %indvars.iv
  %49 = load ptr, ptr %48, align 8
  %50 = call zeroext i1 @get_op_hash_functions(i32 noundef %45, ptr noundef nonnull %4, ptr noundef nonnull %5) #11
  br i1 %50, label %54, label %51

51:                                               ; preds = %42
  %52 = call zeroext i1 @errstart_cold(i32 noundef 21, ptr noundef null) #12
  call void @llvm.assume(i1 %52)
  %53 = call i32 (ptr, ...) @errmsg_internal(ptr noundef nonnull @.str, i32 noundef %45) #11
  call void @errfinish(ptr noundef nonnull @.str.1, i32 noundef 1019, ptr noundef nonnull @__func__.ExecInitMemoize) #11
  unreachable

54:                                               ; preds = %42
  %55 = load i32, ptr %4, align 4
  %56 = load ptr, ptr %37, align 8
  %57 = getelementptr inbounds nuw %struct.FmgrInfo, ptr %56, i64 %indvars.iv
  call void @fmgr_info(i32 noundef %55, ptr noundef %57) #11
  %58 = call ptr @ExecInitExpr(ptr noundef %49, ptr noundef nonnull %6) #11
  %59 = load ptr, ptr %31, align 8
  %60 = getelementptr inbounds nuw ptr, ptr %59, i64 %indvars.iv
  store ptr %58, ptr %60, align 8
  %61 = call i32 @get_opcode(i32 noundef %45) #11
  %62 = getelementptr inbounds nuw i32, ptr %39, i64 %indvars.iv
  store i32 %61, ptr %62, align 4
  call void @llvm.lifetime.end.p0(i64 4, ptr nonnull %5) #11
  call void @llvm.lifetime.end.p0(i64 4, ptr nonnull %4) #11
  %indvars.iv.next = add nuw nsw i64 %indvars.iv, 1
  %exitcond.not = icmp eq i64 %indvars.iv.next, %wide.trip.count
  br i1 %exitcond.not, label %._crit_edge, label %42, !llvm.loop !4

._crit_edge:                                      ; preds = %54, %3
  %63 = load ptr, ptr %22, align 8
  %64 = load ptr, ptr %32, align 8
  %65 = load ptr, ptr %19, align 8
  %66 = call ptr @ExecBuildParamSetEqual(ptr noundef %63, ptr noundef nonnull @TTSOpsMinimalTuple, ptr noundef nonnull @TTSOpsVirtual, ptr noundef %39, ptr noundef %64, ptr noundef %65, ptr noundef nonnull %6) #11
  %67 = getelementptr inbounds nuw i8, ptr %6, i64 264
  store ptr %66, ptr %67, align 8
  call void @pfree(ptr noundef %39) #11
  %68 = getelementptr inbounds nuw i8, ptr %6, i64 296
  store i64 0, ptr %68, align 8
  %69 = call i64 @get_hash_memory_limit() #11
  %70 = getelementptr inbounds nuw i8, ptr %6, i64 304
  store i64 %69, ptr %70, align 8
  %71 = load ptr, ptr @CurrentMemoryContext, align 8
  %72 = call ptr @AllocSetContextCreateInternal(ptr noundef %71, ptr noundef nonnull @.str.2, i64 noundef 0, i64 noundef 8192, i64 noundef 8388608) #11
  %73 = getelementptr inbounds nuw i8, ptr %6, i64 312
  store ptr %72, ptr %73, align 8
  %74 = getelementptr inbounds nuw i8, ptr %6, i64 320
  store ptr %74, ptr %74, align 8
  %75 = getelementptr inbounds nuw i8, ptr %6, i64 328
  store ptr %74, ptr %75, align 8
  %76 = getelementptr inbounds nuw i8, ptr %6, i64 336
  %77 = getelementptr inbounds nuw i8, ptr %0, i64 136
  call void @llvm.memset.p0.i64(ptr noundef nonnull align 8 dereferenceable(16) %76, i8 0, i64 16, i1 false)
  %78 = load i8, ptr %77, align 8, !range !6, !noundef !7
  %79 = getelementptr inbounds nuw i8, ptr %6, i64 352
  store i8 %78, ptr %79, align 8
  %80 = getelementptr inbounds nuw i8, ptr %0, i64 144
  %81 = load ptr, ptr %80, align 8
  %82 = getelementptr inbounds nuw i8, ptr %6, i64 408
  store ptr %81, ptr %82, align 8
  %83 = getelementptr inbounds nuw i8, ptr %0, i64 137
  %84 = load i8, ptr %83, align 1, !range !6, !noundef !7
  %85 = getelementptr inbounds nuw i8, ptr %6, i64 353
  store i8 %84, ptr %85, align 1
  %86 = getelementptr inbounds nuw i8, ptr %6, i64 360
  call void @llvm.memset.p0.i64(ptr noundef nonnull align 8 dereferenceable(40) %86, i8 0, i64 40, i1 false)
  %87 = getelementptr inbounds nuw i8, ptr %6, i64 232
  store ptr null, ptr %87, align 8
  ret ptr %6
}